target datalayout = "e-m:e-p270:32:32-p271:32:32-p272:64:64-i64:64-i128:128-f80:128-n8:16:32:64-S128"
target triple = "x86_64-pc-linux-gnu"

%"class.draco::GeometryAttribute" = type { ptr, %"struct.draco::DataBufferDescriptor", i8, i32, i8, i64, i64, i32, i32 }
%"struct.draco::DataBufferDescriptor" = type { i64, i64 }

; Function Attrs: mustprogress nounwind uwtable
define noundef zeroext i1 @_ZNK5draco17GeometryAttributeeqERKS0_(ptr noundef nonnull align 8 dereferenceable(64) %0, ptr noundef nonnull align 8 dereferenceable(64) %1) #1 align 2 {
  %3 = alloca i1, align 1
  %4 = alloca ptr, align 8
  %5 = alloca ptr, align 8
  store ptr %0, ptr %4, align 8, !tbaa !3
  store ptr %1, ptr %5, align 8, !tbaa !3
  %6 = load ptr, ptr %4, align 8
  %7 = getelementptr inbounds nuw %"class.draco::GeometryAttribute", ptr %6, i32 0, i32 7
  %8 = load i32, ptr %7, align 8, !tbaa !21
  %9 = load ptr, ptr %5, align 8, !tbaa !3
  %10 = getelementptr inbounds nuw %"class.draco::GeometryAttribute", ptr %9, i32 0, i32 7
  %11 = load i32, ptr %10, align 8, !tbaa !21
  %12 = icmp ne i32 %8, %11
  br i1 %12, label %13, label %14

13:                                               ; preds = %2
  store i1 false, ptr %3, align 1
  br label %69

14:                                               ; preds = %2
  %15 = getelementptr inbounds nuw %"class.draco::GeometryAttribute", ptr %6, i32 0, i32 1
  %16 = getelementptr inbounds nuw %"struct.draco::DataBufferDescriptor", ptr %15, i32 0, i32 0
  %17 = load i64, ptr %16, align 8, !tbaa !33
  %18 = load ptr, ptr %5, align 8, !tbaa !3
  %19 = getelementptr inbounds nuw %"class.draco::GeometryAttribute", ptr %18, i32 0, i32 1
  %20 = getelementptr inbounds nuw %"struct.draco::DataBufferDescriptor", ptr %19, i32 0, i32 0
  %21 = load i64, ptr %20, align 8, !tbaa !33
  %22 = icmp ne i64 %17, %21
  br i1 %22, label %23, label %24

23:                                               ; preds = %14
  store i1 false, ptr %3, align 1
  br label %69

24:                                               ; preds = %14
  %25 = getelementptr inbounds nuw %"class.draco::GeometryAttribute", ptr %6, i32 0, i32 1
  %26 = getelementptr inbounds nuw %"struct.draco::DataBufferDescriptor", ptr %25, i32 0, i32 1
  %27 = load i64, ptr %26, align 8, !tbaa !34
  %28 = load ptr, ptr %5, align 8, !tbaa !3
  %29 = getelementptr inbounds nuw %"class.draco::GeometryAttribute", ptr %28, i32 0, i32 1
  %30 = getelementptr inbounds nuw %"struct.draco::DataBufferDescriptor", ptr %29, i32 0, i32 1
  %31 = load i64, ptr %30, align 8, !tbaa !34
  %32 = icmp ne i64 %27, %31
  br i1 %32, label %33, label %34

33:                                               ; preds = %24
  store i1 false, ptr %3, align 1
  br label %69

34:                                               ; preds = %24
  %35 = getelementptr inbounds nuw %"class.draco::GeometryAttribute", ptr %6, i32 0, i32 2
  %36 = load i8, ptr %35, align 8, !tbaa !17
  %37 = zext i8 %36 to i32
  %38 = load ptr, ptr %5, align 8, !tbaa !3
  %39 = getelementptr inbounds nuw %"class.draco::GeometryAttribute", ptr %38, i32 0, i32 2
  %40 = load i8, ptr %39, align 8, !tbaa !17
  %41 = zext i8 %40 to i32
  %42 = icmp ne i32 %37, %41
  br i1 %42, label %43, label %44

43:                                               ; preds = %34
  store i1 false, ptr %3, align 1
  br label %69

44:                                               ; preds = %34
  %45 = getelementptr inbounds nuw %"class.draco::GeometryAttribute", ptr %6, i32 0, i32 3
  %46 = load i32, ptr %45, align 4, !tbaa !18
  %47 = load ptr, ptr %5, align 8, !tbaa !3
  %48 = getelementptr inbounds nuw %"class.draco::GeometryAttribute", ptr %47, i32 0, i32 3
  %49 = load i32, ptr %48, align 4, !tbaa !18
  %50 = icmp ne i32 %46, %49
  br i1 %50, label %51, label %52

51:                                               ; preds = %44
  store i1 false, ptr %3, align 1
  br label %69

52:                                               ; preds = %44
  %53 = getelementptr inbounds nuw %"class.draco::GeometryAttribute", ptr %6, i32 0, i32 5
  %54 = load i64, ptr %53, align 8, !tbaa !19
  %55 = load ptr, ptr %5, align 8, !tbaa !3
  %56 = getelementptr inbounds nuw %"class.draco::GeometryAttribute", ptr %55, i32 0, i32 5
  %57 = load i64, ptr %56, align 8, !tbaa !19
  %58 = icmp ne i64 %54, %57
  br i1 %58, label %59, label %60

59:                                               ; preds = %52
  store i1 false, ptr %3, align 1
  br label %69

60:                                               ; preds = %52
  %61 = getelementptr inbounds nuw %"class.draco::GeometryAttribute", ptr %6, i32 0, i32 6
  %62 = load i64, ptr %61, align 8, !tbaa !20
  %63 = load ptr, ptr %5, align 8, !tbaa !3
  %64 = getelementptr inbounds nuw %"class.draco::GeometryAttribute", ptr %63, i32 0, i32 6
  %65 = load i64, ptr %64, align 8, !tbaa !20
  %66 = icmp ne i64 %62, %65
  br i1 %66, label %67, label %68

67:                                               ; preds = %60
  store i1 false, ptr %3, align 1
  br label %69

68:                                               ; preds = %60
  store i1 true, ptr %3, align 1
  br label %69

69:                                               ; preds = %68, %67, %59, %51, %43, %33, %23, %13
  %70 = load i1, ptr %3, align 1
  ret i1 %70
}