; Function Attrs: mustprogress nofree norecurse nosync nounwind willreturn memory(argmem: read) uwtable
define noundef zeroext i1 @_ZNK5draco17GeometryAttributeeqERKS0_(ptr noundef nonnull readonly align 8 captures(none) dereferenceable(64) %0, ptr noundef nonnull readonly align 8 captures(none) dereferenceable(64) %1) local_unnamed_addr #5 align 2 {
  %3 = getelementptr inbounds nuw i8, ptr %0, i64 56
  %4 = load i32, ptr %3, align 8, !tbaa !16
  %5 = getelementptr inbounds nuw i8, ptr %1, i64 56
  %6 = load i32, ptr %5, align 8, !tbaa !16
  %.not = icmp eq i32 %4, %6
  br i1 %.not, label %7, label %37

7:                                                ; preds = %2
  %8 = getelementptr inbounds nuw i8, ptr %0, i64 8
  %9 = load i64, ptr %8, align 8, !tbaa !26
  %10 = getelementptr inbounds nuw i8, ptr %1, i64 8
  %11 = load i64, ptr %10, align 8, !tbaa !26
  %.not9 = icmp eq i64 %9, %11
  br i1 %.not9, label %12, label %37

12:                                               ; preds = %7
  %13 = getelementptr inbounds nuw i8, ptr %0, i64 16
  %14 = load i64, ptr %13, align 8, !tbaa !28
  %15 = getelementptr inbounds nuw i8, ptr %1, i64 16
  %16 = load i64, ptr %15, align 8, !tbaa !28
  %.not10 = icmp eq i64 %14, %16
  br i1 %.not10, label %17, label %37

17:                                               ; preds = %12
  %18 = getelementptr inbounds nuw i8, ptr %0, i64 24
  %19 = load i8, ptr %18, align 8, !tbaa !3
  %20 = getelementptr inbounds nuw i8, ptr %1, i64 24
  %21 = load i8, ptr %20, align 8, !tbaa !3
  %.not11 = icmp eq i8 %19, %21
  br i1 %.not11, label %22, label %37

22:                                               ; preds = %17
  %23 = getelementptr inbounds nuw i8, ptr %0, i64 28
  %24 = load i32, ptr %23, align 4, !tbaa !15
  %25 = getelementptr inbounds nuw i8, ptr %1, i64 28
  %26 = load i32, ptr %25, align 4, !tbaa !15
  %.not12 = icmp eq i32 %24, %26
  br i1 %.not12, label %27, label %37

27:                                               ; preds = %22
  %28 = getelementptr inbounds nuw i8, ptr %0, i64 40
  %29 = load i64, ptr %28, align 8, !tbaa !30
  %30 = getelementptr inbounds nuw i8, ptr %1, i64 40
  %31 = load i64, ptr %30, align 8, !tbaa !30
  %.not13 = icmp eq i64 %29, %31
  br i1 %.not13, label %32, label %37

32:                                               ; preds = %27
  %33 = getelementptr inbounds nuw i8, ptr %0, i64 48
  %34 = load i64, ptr %33, align 8, !tbaa !31
  %35 = getelementptr inbounds nuw i8, ptr %1, i64 48
  %36 = load i64, ptr %35, align 8, !tbaa !31
  %.not14 = icmp eq i64 %34, %36
  br label %37

37:                                               ; preds = %32, %27, %22, %17, %12, %7, %2
  %.0 = phi i1 [ false, %2 ], [ false, %7 ], [ false, %12 ], [ false, %17 ], [ false, %22 ], [ false, %27 ], [ %.not14, %32 ]
  ret i1 %.0
}